target datalayout = "e-m:e-p270:32:32-p271:32:32-p272:64:64-i64:64-i128:128-f80:128-n8:16:32:64-S128"
target triple = "x86_64-pc-linux-gnu"

; Function Attrs: nounwind uwtable
define i32 @is_bank_code_valid(i32 noundef %0) #0 {
  %2 = alloca i32, align 4
  %3 = alloca i32, align 4
  store i32 %0, ptr %3, align 4
  %4 = load i32, ptr %3, align 4
  switch i32 %4, label %40 [
    i32 1, label %5
    i32 2, label %6
    i32 3, label %7
    i32 4, label %8
    i32 6, label %9
    i32 10, label %10
    i32 16, label %11
    i32 30, label %12
    i32 39, label %13
    i32 117, label %14
    i32 127, label %15
    i32 177, label %16
    i32 219, label %17
    i32 260, label %18
    i32 290, label %19
    i32 308, label %20
    i32 309, label %21
    i32 326, label %22
    i32 338, label %23
    i32 340, label %24
    i32 509, label %25
    i32 540, label %26
    i32 614, label %27
    i32 809, label %28
    i32 815, label %29
    i32 819, label %30
    i32 828, label %31
    i32 829, label %32
    i32 837, label %33
    i32 839, label %34
    i32 865, label %35
    i32 879, label %36
    i32 889, label %37
    i32 899, label %38
    i32 900, label %39
  ]

5:                                                ; preds = %1
  store i32 1, ptr %2, align 4
  br label %41

6:                                                ; preds = %1
  store i32 1, ptr %2, align 4
  br label %41

7:                                                ; preds = %1
  store i32 1, ptr %2, align 4
  br label %41

8:                                                ; preds = %1
  store i32 1, ptr %2, align 4
  br label %41

9:                                                ; preds = %1
  store i32 1, ptr %2, align 4
  br label %41

10:                                               ; preds = %1
  store i32 1, ptr %2, align 4
  br label %41

11:                                               ; preds = %1
  store i32 1, ptr %2, align 4
  br label %41

12:                                               ; preds = %1
  store i32 1, ptr %2, align 4
  br label %41

13:                                               ; preds = %1
  store i32 1, ptr %2, align 4
  br label %41

14:                                               ; preds = %1
  store i32 1, ptr %2, align 4
  br label %41

15:                                               ; preds = %1
  store i32 1, ptr %2, align 4
  br label %41

16:                                               ; preds = %1
  store i32 1, ptr %2, align 4
  br label %41

17:                                               ; preds = %1
  store i32 1, ptr %2, align 4
  br label %41

18:                                               ; preds = %1
  store i32 1, ptr %2, align 4
  br label %41

19:                                               ; preds = %1
  store i32 1, ptr %2, align 4
  br label %41

20:                                               ; preds = %1
  store i32 1, ptr %2, align 4
  br label %41

21:                                               ; preds = %1
  store i32 1, ptr %2, align 4
  br label %41

22:                                               ; preds = %1
  store i32 1, ptr %2, align 4
  br label %41

23:                                               ; preds = %1
  store i32 1, ptr %2, align 4
  br label %41

24:                                               ; preds = %1
  store i32 1, ptr %2, align 4
  br label %41

25:                                               ; preds = %1
  store i32 1, ptr %2, align 4
  br label %41

26:                                               ; preds = %1
  store i32 1, ptr %2, align 4
  br label %41

27:                                               ; preds = %1
  store i32 1, ptr %2, align 4
  br label %41

28:                                               ; preds = %1
  store i32 1, ptr %2, align 4
  br label %41

29:                                               ; preds = %1
  store i32 1, ptr %2, align 4
  br label %41

30:                                               ; preds = %1
  store i32 1, ptr %2, align 4
  br label %41

31:                                               ; preds = %1
  store i32 1, ptr %2, align 4
  br label %41

32:                                               ; preds = %1
  store i32 1, ptr %2, align 4
  br label %41

33:                                               ; preds = %1
  store i32 1, ptr %2, align 4
  br label %41

34:                                               ; preds = %1
  store i32 1, ptr %2, align 4
  br label %41

35:                                               ; preds = %1
  store i32 1, ptr %2, align 4
  br label %41

36:                                               ; preds = %1
  store i32 1, ptr %2, align 4
  br label %41

37:                                               ; preds = %1
  store i32 1, ptr %2, align 4
  br label %41

38:                                               ; preds = %1
  store i32 1, ptr %2, align 4
  br label %41

39:                                               ; preds = %1
  store i32 1, ptr %2, align 4
  br label %41

40:                                               ; preds = %1
  store i32 0, ptr %2, align 4
  br label %41

41:                                               ; preds = %40, %39, %38, %37, %36, %35, %34, %33, %32, %31, %30, %29, %28, %27, %26, %25, %24, %23, %22, %21, %20, %19, %18, %17, %16, %15, %14, %13, %12, %11, %10, %9, %8, %7, %6, %5
  %42 = load i32, ptr %2, align 4
  ret i32 %42
}