; Function Attrs: mustprogress nofree norecurse nosync nounwind willreturn memory(none) uwtable
define range(i32 0, 2) i32 @is_bank_code_valid(i32 noundef %0) local_unnamed_addr #5 {
  switch i32 %0, label %2 [
    i32 1, label %3
    i32 2, label %3
    i32 3, label %3
    i32 4, label %3
    i32 6, label %3
    i32 10, label %3
    i32 16, label %3
    i32 30, label %3
    i32 39, label %3
    i32 117, label %3
    i32 127, label %3
    i32 177, label %3
    i32 219, label %3
    i32 260, label %3
    i32 290, label %3
    i32 308, label %3
    i32 309, label %3
    i32 326, label %3
    i32 338, label %3
    i32 340, label %3
    i32 509, label %3
    i32 540, label %3
    i32 614, label %3
    i32 809, label %3
    i32 815, label %3
    i32 819, label %3
    i32 828, label %3
    i32 829, label %3
    i32 837, label %3
    i32 839, label %3
    i32 865, label %3
    i32 879, label %3
    i32 889, label %3
    i32 899, label %3
    i32 900, label %3
  ]

2:                                                ; preds = %1
  br label %3

3:                                                ; preds = %1, %1, %1, %1, %1, %1, %1, %1, %1, %1, %1, %1, %1, %1, %1, %1, %1, %1, %1, %1, %1, %1, %1, %1, %1, %1, %1, %1, %1, %1, %1, %1, %1, %1, %1, %2
  %.0 = phi i32 [ 0, %2 ], [ 1, %1 ], [ 1, %1 ], [ 1, %1 ], [ 1, %1 ], [ 1, %1 ], [ 1, %1 ], [ 1, %1 ], [ 1, %1 ], [ 1, %1 ], [ 1, %1 ], [ 1, %1 ], [ 1, %1 ], [ 1, %1 ], [ 1, %1 ], [ 1, %1 ], [ 1, %1 ], [ 1, %1 ], [ 1, %1 ], [ 1, %1 ], [ 1, %1 ], [ 1, %1 ], [ 1, %1 ], [ 1, %1 ], [ 1, %1 ], [ 1, %1 ], [ 1, %1 ], [ 1, %1 ], [ 1, %1 ], [ 1, %1 ], [ 1, %1 ], [ 1, %1 ], [ 1, %1 ], [ 1, %1 ], [ 1, %1 ], [ 1, %1 ]
  ret i32 %.0
}